target datalayout = "e-m:e-p270:32:32-p271:32:32-p272:64:64-i64:64-i128:128-f80:128-n8:16:32:64-S128"
target triple = "x86_64-pc-linux-gnu"

@.str = private unnamed_addr constant [33 x i8] c"../openssl/crypto/bio/bio_sock.c\00", align 1

; Function Attrs: nounwind uwtable
define i32 @BIO_sock_init() #0 {
  ret i32 1
}

; Function Attrs: nounwind uwtable
define i32 @BIO_get_accept_socket(ptr noundef %0, i32 noundef %1) #0 {
  %3 = alloca i32, align 4
  %4 = alloca ptr, align 8
  %5 = alloca i32, align 4
  %6 = alloca i32, align 4
  %7 = alloca ptr, align 8
  %8 = alloca ptr, align 8
  %9 = alloca ptr, align 8
  %10 = alloca i32, align 4
  store ptr %0, ptr %4, align 8, !tbaa !3
  store i32 %1, ptr %5, align 4, !tbaa !10
  call void @llvm.lifetime.start.p0(i64 4, ptr %6) #8
  store i32 -1, ptr %6, align 4, !tbaa !10
  call void @llvm.lifetime.start.p0(i64 8, ptr %7) #8
  store ptr null, ptr %7, align 8, !tbaa !3
  call void @llvm.lifetime.start.p0(i64 8, ptr %8) #8
  store ptr null, ptr %8, align 8, !tbaa !3
  call void @llvm.lifetime.start.p0(i64 8, ptr %9) #8
  store ptr null, ptr %9, align 8, !tbaa !8
  %11 = load ptr, ptr %4, align 8, !tbaa !3
  %12 = call i32 @BIO_parse_hostserv(ptr noundef %11, ptr noundef %7, ptr noundef %8, i32 noundef 1)
  %13 = icmp ne i32 %12, 0
  br i1 %13, label %15, label %14

14:                                               ; preds = %2
  store i32 -1, ptr %3, align 4
  store i32 1, ptr %10, align 4
  br label %53

15:                                               ; preds = %2
  %16 = call i32 @BIO_sock_init()
  %17 = icmp ne i32 %16, 1
  br i1 %17, label %18, label %19

18:                                               ; preds = %15
  br label %48

19:                                               ; preds = %15
  %20 = load ptr, ptr %7, align 8, !tbaa !3
  %21 = load ptr, ptr %8, align 8, !tbaa !3
  %22 = call i32 @BIO_lookup(ptr noundef %20, ptr noundef %21, i32 noundef 1, i32 noundef 0, i32 noundef 1, ptr noundef %9)
  %23 = icmp ne i32 %22, 0
  br i1 %23, label %24, label %25

24:                                               ; preds = %19
  br label %48

25:                                               ; preds = %19
  %26 = load ptr, ptr %9, align 8, !tbaa !8
  %27 = call i32 @BIO_ADDRINFO_family(ptr noundef %26)
  %28 = load ptr, ptr %9, align 8, !tbaa !8
  %29 = call i32 @BIO_ADDRINFO_socktype(ptr noundef %28)
  %30 = load ptr, ptr %9, align 8, !tbaa !8
  %31 = call i32 @BIO_ADDRINFO_protocol(ptr noundef %30)
  %32 = call i32 @BIO_socket(i32 noundef %27, i32 noundef %29, i32 noundef %31, i32 noundef 0)
  store i32 %32, ptr %6, align 4, !tbaa !10
  %33 = icmp eq i32 %32, -1
  br i1 %33, label %34, label %35

34:                                               ; preds = %25
  store i32 -1, ptr %6, align 4, !tbaa !10
  br label %48

35:                                               ; preds = %25
  %36 = load i32, ptr %6, align 4, !tbaa !10
  %37 = load ptr, ptr %9, align 8, !tbaa !8
  %38 = call ptr @BIO_ADDRINFO_address(ptr noundef %37)
  %39 = load i32, ptr %5, align 4, !tbaa !10
  %40 = icmp ne i32 %39, 0
  %41 = select i1 %40, i32 1, i32 0
  %42 = call i32 @BIO_listen(i32 noundef %36, ptr noundef %38, i32 noundef %41)
  %43 = icmp ne i32 %42, 0
  br i1 %43, label %47, label %44

44:                                               ; preds = %35
  %45 = load i32, ptr %6, align 4, !tbaa !10
  %46 = call i32 @BIO_closesocket(i32 noundef %45)
  store i32 -1, ptr %6, align 4, !tbaa !10
  br label %47

47:                                               ; preds = %44, %35
  br label %48

48:                                               ; preds = %47, %34, %24, %18
  %49 = load ptr, ptr %9, align 8, !tbaa !8
  call void @BIO_ADDRINFO_free(ptr noundef %49)
  %50 = load ptr, ptr %7, align 8, !tbaa !3
  call void @CRYPTO_free(ptr noundef %50, ptr noundef @.str, i32 noundef 281)
  %51 = load ptr, ptr %8, align 8, !tbaa !3
  call void @CRYPTO_free(ptr noundef %51, ptr noundef @.str, i32 noundef 282)
  %52 = load i32, ptr %6, align 4, !tbaa !10
  store i32 %52, ptr %3, align 4
  store i32 1, ptr %10, align 4
  br label %53

53:                                               ; preds = %48, %14
  call void @llvm.lifetime.end.p0(i64 8, ptr %9) #8
  call void @llvm.lifetime.end.p0(i64 8, ptr %8) #8
  call void @llvm.lifetime.end.p0(i64 8, ptr %7) #8
  call void @llvm.lifetime.end.p0(i64 4, ptr %6) #8
  %54 = load i32, ptr %3, align 4
  ret i32 %54
}