; Function Attrs: nounwind uwtable
define i32 @BIO_get_accept_socket(ptr noundef %0, i32 noundef %1) local_unnamed_addr #0 {
  %3 = alloca ptr, align 8
  %4 = alloca ptr, align 8
  %5 = alloca ptr, align 8
  call void @llvm.lifetime.start.p0(i64 8, ptr nonnull %3) #9
  store ptr null, ptr %3, align 8, !tbaa !13
  call void @llvm.lifetime.start.p0(i64 8, ptr nonnull %4) #9
  store ptr null, ptr %4, align 8, !tbaa !13
  call void @llvm.lifetime.start.p0(i64 8, ptr nonnull %5) #9
  store ptr null, ptr %5, align 8, !tbaa !3
  %6 = call i32 @BIO_parse_hostserv(ptr noundef %0, ptr noundef nonnull %3, ptr noundef nonnull %4, i32 noundef 1) #9
  %.not = icmp eq i32 %6, 0
  br i1 %.not, label %31, label %7

7:                                                ; preds = %2
  %8 = load ptr, ptr %3, align 8, !tbaa !13
  %9 = load ptr, ptr %4, align 8, !tbaa !13
  %10 = call i32 @BIO_lookup(ptr noundef %8, ptr noundef %9, i32 noundef 1, i32 noundef 0, i32 noundef 1, ptr noundef nonnull %5) #9
  %.not7 = icmp eq i32 %10, 0
  br i1 %.not7, label %11, label %27

11:                                               ; preds = %7
  %12 = load ptr, ptr %5, align 8, !tbaa !3
  %13 = call i32 @BIO_ADDRINFO_family(ptr noundef %12) #9
  %14 = load ptr, ptr %5, align 8, !tbaa !3
  %15 = call i32 @BIO_ADDRINFO_socktype(ptr noundef %14) #9
  %16 = load ptr, ptr %5, align 8, !tbaa !3
  %17 = call i32 @BIO_ADDRINFO_protocol(ptr noundef %16) #9
  %18 = call i32 @BIO_socket(i32 noundef %13, i32 noundef %15, i32 noundef %17, i32 noundef 0) #9
  %19 = icmp eq i32 %18, -1
  br i1 %19, label %27, label %20

20:                                               ; preds = %11
  %21 = load ptr, ptr %5, align 8, !tbaa !3
  %22 = call ptr @BIO_ADDRINFO_address(ptr noundef %21) #9
  %.not8 = icmp ne i32 %1, 0
  %23 = zext i1 %.not8 to i32
  %24 = call i32 @BIO_listen(i32 noundef %18, ptr noundef %22, i32 noundef %23) #9
  %.not9 = icmp eq i32 %24, 0
  br i1 %.not9, label %25, label %27

25:                                               ; preds = %20
  %26 = call i32 @BIO_closesocket(i32 noundef %18) #9
  br label %27

27:                                               ; preds = %11, %20, %25, %7
  %.0 = phi i32 [ -1, %7 ], [ %18, %20 ], [ -1, %25 ], [ -1, %11 ]
  %28 = load ptr, ptr %5, align 8, !tbaa !3
  call void @BIO_ADDRINFO_free(ptr noundef %28) #9
  %29 = load ptr, ptr %3, align 8, !tbaa !13
  call void @CRYPTO_free(ptr noundef %29, ptr noundef nonnull @.str, i32 noundef 281) #9
  %30 = load ptr, ptr %4, align 8, !tbaa !13
  call void @CRYPTO_free(ptr noundef %30, ptr noundef nonnull @.str, i32 noundef 282) #9
  br label %31

31:                                               ; preds = %2, %27
  %.05 = phi i32 [ %.0, %27 ], [ -1, %2 ]
  call void @llvm.lifetime.end.p0(i64 8, ptr nonnull %5) #9
  call void @llvm.lifetime.end.p0(i64 8, ptr nonnull %4) #9
  call void @llvm.lifetime.end.p0(i64 8, ptr nonnull %3) #9
  ret i32 %.05
}